target datalayout = "e-m:e-p270:32:32-p271:32:32-p272:64:64-i64:64-i128:128-f80:128-n8:16:32:64-S128"
target triple = "x86_64-unknown-linux-gnu"

%"class.node::url::BindingData" = type { %"class.node::SnapshotableObject.base", %"class.node::AliasedBufferBase" }
%"class.node::SnapshotableObject.base" = type <{ %"class.node::BaseObject", i8 }>
%"class.node::BaseObject" = type { %"class.node::MemoryRetainer", %"class.v8::Global", ptr, ptr }
%"class.node::MemoryRetainer" = type { ptr }
%"class.v8::Global" = type { %"class.v8::PersistentBase" }
%"class.v8::PersistentBase" = type { %"class.v8::IndirectHandleBase" }
%"class.v8::IndirectHandleBase" = type { ptr }
%"class.node::AliasedBufferBase" = type { %"class.node::MemoryRetainer", ptr, i64, i64, ptr, %"class.v8::Global.5", ptr }
%"class.v8::Global.5" = type { %"class.v8::PersistentBase.6" }
%"class.v8::PersistentBase.6" = type { %"class.v8::IndirectHandleBase" }
%"class.v8::Local.41" = type { %"class.v8::LocalBase.42" }
%"class.v8::LocalBase.42" = type { %"class.v8::IndirectHandleBase" }

; Function Attrs: mustprogress nounwind uwtable
define linkonce_odr dso_local void @_ZN4node17AliasedBufferBaseIjN2v811Uint32ArrayEE7ReleaseEv(ptr noundef nonnull align 8 dereferenceable(56) %this) #4 comdat align 2 {
entry:
  %this.addr.i4 = alloca ptr, align 8
  %this.addr.i2 = alloca ptr, align 8
  %this.addr.i.i = alloca ptr, align 8
  %this.addr.i = alloca ptr, align 8
  %this.addr = alloca ptr, align 8
  store ptr %this, ptr %this.addr, align 8
  %this1 = load ptr, ptr %this.addr, align 8
  %js_array_ = getelementptr inbounds %"class.node::AliasedBufferBase", ptr %this1, i32 0, i32 5
  store ptr %js_array_, ptr %this.addr.i, align 8
  %this1.i = load ptr, ptr %this.addr.i, align 8
  store ptr %this1.i, ptr %this.addr.i.i, align 8
  %this1.i.i = load ptr, ptr %this.addr.i.i, align 8
  %0 = load ptr, ptr %this1.i.i, align 8
  %cmp.i.i = icmp eq ptr %0, null
  br i1 %cmp.i.i, label %if.then.i, label %if.end.i

if.then.i:                                        ; preds = %entry
  br label %_ZN2v814PersistentBaseINS_11Uint32ArrayEE5ResetEv.exit

if.end.i:                                         ; preds = %entry
  store ptr %this1.i, ptr %this.addr.i2, align 8
  %this1.i3 = load ptr, ptr %this.addr.i2, align 8
  %1 = load ptr, ptr %this1.i3, align 8
  call void @_ZN2v812api_internal13DisposeGlobalEPm(ptr noundef %1) #3
  store ptr %this1.i, ptr %this.addr.i4, align 8
  %this1.i5 = load ptr, ptr %this.addr.i4, align 8
  store ptr null, ptr %this1.i5, align 8
  br label %_ZN2v814PersistentBaseINS_11Uint32ArrayEE5ResetEv.exit

_ZN2v814PersistentBaseINS_11Uint32ArrayEE5ResetEv.exit: ; preds = %if.end.i, %if.then.i
  ret void
}

; Function Attrs: mustprogress nounwind uwtable
define dso_local noundef zeroext i1 @_ZN4node3url11BindingData23PrepareForSerializationEN2v85LocalINS2_7ContextEEEPNS2_15SnapshotCreatorE(ptr noundef nonnull align 8 dereferenceable(96) %this, ptr %context.coerce, ptr noundef %creator) unnamed_addr #4 align 2 {
entry:
  %context = alloca %"class.v8::Local.41", align 8
  %this.addr = alloca ptr, align 8
  %creator.addr = alloca ptr, align 8
  %coerce.dive = getelementptr inbounds %"class.v8::Local.41", ptr %context, i32 0, i32 0
  %coerce.dive1 = getelementptr inbounds %"class.v8::LocalBase.42", ptr %coerce.dive, i32 0, i32 0
  %coerce.dive2 = getelementptr inbounds %"class.v8::IndirectHandleBase", ptr %coerce.dive1, i32 0, i32 0
  store ptr %context.coerce, ptr %coerce.dive2, align 8
  store ptr %this, ptr %this.addr, align 8
  store ptr %creator, ptr %creator.addr, align 8
  %this3 = load ptr, ptr %this.addr, align 8
  %url_components_buffer_ = getelementptr inbounds %"class.node::url::BindingData", ptr %this3, i32 0, i32 1
  call void @_ZN4node17AliasedBufferBaseIjN2v811Uint32ArrayEE7ReleaseEv(ptr noundef nonnull align 8 dereferenceable(56) %url_components_buffer_)
  ret i1 true
}