; Function Attrs: mustprogress nounwind uwtable
define dso_local noundef zeroext i1 @_ZN4node3url11BindingData23PrepareForSerializationEN2v85LocalINS2_7ContextEEEPNS2_15SnapshotCreatorE(ptr nocapture noundef nonnull align 8 dereferenceable(96) %this, ptr nocapture readnone %context.coerce, ptr nocapture readnone %creator) unnamed_addr #3 align 2 {
entry:
  %js_array_.i = getelementptr inbounds i8, ptr %this, i64 80
  %0 = load ptr, ptr %js_array_.i, align 8
  %cmp.i.i.i = icmp eq ptr %0, null
  br i1 %cmp.i.i.i, label %_ZN4node17AliasedBufferBaseIjN2v811Uint32ArrayEE7ReleaseEv.exit, label %if.end.i.i

if.end.i.i:                                       ; preds = %entry
  tail call void @_ZN2v812api_internal13DisposeGlobalEPm(ptr noundef nonnull %0) #22
  store ptr null, ptr %js_array_.i, align 8
  br label %_ZN4node17AliasedBufferBaseIjN2v811Uint32ArrayEE7ReleaseEv.exit

_ZN4node17AliasedBufferBaseIjN2v811Uint32ArrayEE7ReleaseEv.exit: ; preds = %entry, %if.end.i.i
  ret i1 true
}